; Function Attrs: mustprogress nounwind uwtable
define dso_local void @_ZN4llvm8codeview19SymbolRecordMapping16visitKnownRecordERNS0_8CVRecordINS0_10SymbolKindEEERNS0_11PublicSym32E(ptr dead_on_unwind noalias writable sret(%"class.llvm::Error") align 8 %0, ptr noundef nonnull align 8 dereferenceable(92) %1, ptr nocapture nonnull readnone align 1 %2, ptr noundef nonnull align 8 dereferenceable(36) %3) unnamed_addr #0 align 2 {
_ZN4llvm5ErrorD2Ev.exit:
  %4 = alloca %"class.llvm::Twine", align 8
  %5 = alloca %"class.llvm::Twine", align 8
  %6 = alloca %"class.llvm::Twine", align 8
  %7 = alloca %"class.llvm::Twine", align 8
  %8 = getelementptr inbounds nuw i8, ptr %1, i64 16
  %9 = getelementptr inbounds nuw i8, ptr %3, i64 4
  %10 = getelementptr inbounds nuw i8, ptr %4, i64 32
  store i16 257, ptr %10, align 8
  call void @_ZN4llvm8codeview16CodeViewRecordIO7mapEnumINS0_14PublicSymFlagsEEENS_5ErrorERT_RKNS_5TwineE(ptr dead_on_unwind writable sret(%"class.llvm::Error") align 8 %0, ptr noundef nonnull align 8 dereferenceable(72) %8, ptr noundef nonnull align 4 dereferenceable(4) %9, ptr noundef nonnull align 8 dereferenceable(34) %4)
  %11 = load ptr, ptr %0, align 8
  %.not = icmp eq ptr %11, null
  br i1 %.not, label %_ZN4llvm5ErrorD2Ev.exit22, label %_ZN4llvm12ErrorSuccessD2Ev.exit

_ZN4llvm5ErrorD2Ev.exit22:                        ; preds = %_ZN4llvm5ErrorD2Ev.exit
  %12 = getelementptr inbounds nuw i8, ptr %3, i64 8
  %13 = getelementptr inbounds nuw i8, ptr %5, i64 32
  store i16 257, ptr %13, align 8
  call void @_ZN4llvm8codeview16CodeViewRecordIO10mapIntegerIjEENS_5ErrorERT_RKNS_5TwineE(ptr dead_on_unwind nonnull writable sret(%"class.llvm::Error") align 8 %0, ptr noundef nonnull align 8 dereferenceable(72) %8, ptr noundef nonnull align 4 dereferenceable(4) %12, ptr noundef nonnull align 8 dereferenceable(34) %5)
  %14 = load ptr, ptr %0, align 8
  %.not26 = icmp eq ptr %14, null
  br i1 %.not26, label %_ZN4llvm5ErrorD2Ev.exit23, label %_ZN4llvm12ErrorSuccessD2Ev.exit

_ZN4llvm5ErrorD2Ev.exit23:                        ; preds = %_ZN4llvm5ErrorD2Ev.exit22
  %15 = getelementptr inbounds nuw i8, ptr %3, i64 12
  %16 = getelementptr inbounds nuw i8, ptr %6, i64 32
  store i16 257, ptr %16, align 8
  call void @_ZN4llvm8codeview16CodeViewRecordIO10mapIntegerItEENS_5ErrorERT_RKNS_5TwineE(ptr dead_on_unwind nonnull writable sret(%"class.llvm::Error") align 8 %0, ptr noundef nonnull align 8 dereferenceable(72) %8, ptr noundef nonnull align 2 dereferenceable(2) %15, ptr noundef nonnull align 8 dereferenceable(34) %6)
  %17 = load ptr, ptr %0, align 8
  %.not27 = icmp eq ptr %17, null
  br i1 %.not27, label %_ZN4llvm5ErrorD2Ev.exit24, label %_ZN4llvm12ErrorSuccessD2Ev.exit

_ZN4llvm5ErrorD2Ev.exit24:                        ; preds = %_ZN4llvm5ErrorD2Ev.exit23
  %18 = getelementptr inbounds nuw i8, ptr %3, i64 16
  %19 = getelementptr inbounds nuw i8, ptr %7, i64 32
  store i16 257, ptr %19, align 8
  call void @_ZN4llvm8codeview16CodeViewRecordIO10mapStringZERNS_9StringRefERKNS_5TwineE(ptr dead_on_unwind nonnull writable sret(%"class.llvm::Error") align 8 %0, ptr noundef nonnull align 8 dereferenceable(72) %8, ptr noundef nonnull align 8 dereferenceable(16) %18, ptr noundef nonnull align 8 dereferenceable(34) %7) #16
  br label %_ZN4llvm12ErrorSuccessD2Ev.exit

_ZN4llvm12ErrorSuccessD2Ev.exit:                  ; preds = %_ZN4llvm5ErrorD2Ev.exit24, %_ZN4llvm5ErrorD2Ev.exit23, %_ZN4llvm5ErrorD2Ev.exit22, %_ZN4llvm5ErrorD2Ev.exit
  ret void
}